target datalayout = "e-m:e-p270:32:32-p271:32:32-p272:64:64-i64:64-i128:128-f80:128-n8:16:32:64-S128"
target triple = "x86_64-pc-linux-gnu"

@PqCommBusy = internal global i8 0, align 1

; Function Attrs: nounwind uwtable
define dso_local i32 @pq_putmessage_v2(i8 noundef signext %0, ptr noundef %1, i64 noundef %2) #0 {
  %4 = alloca i32, align 4
  %5 = alloca i8, align 1
  %6 = alloca ptr, align 8
  %7 = alloca i64, align 8
  store i8 %0, ptr %5, align 1
  store ptr %1, ptr %6, align 8
  store i64 %2, ptr %7, align 8
  %8 = load i8, ptr @PqCommBusy, align 1, !range !11, !noundef !12
  %9 = trunc i8 %8 to i1
  br i1 %9, label %10, label %11

10:                                               ; preds = %3
  store i32 0, ptr %4, align 4
  br label %23

11:                                               ; preds = %3
  store i8 1, ptr @PqCommBusy, align 1
  %12 = call i32 @internal_putbytes(ptr noundef %5, i64 noundef 1)
  %13 = icmp ne i32 %12, 0
  br i1 %13, label %14, label %15

14:                                               ; preds = %11
  br label %22

15:                                               ; preds = %11
  %16 = load ptr, ptr %6, align 8
  %17 = load i64, ptr %7, align 8
  %18 = call i32 @internal_putbytes(ptr noundef %16, i64 noundef %17)
  %19 = icmp ne i32 %18, 0
  br i1 %19, label %20, label %21

20:                                               ; preds = %15
  br label %22

21:                                               ; preds = %15
  store i8 0, ptr @PqCommBusy, align 1
  store i32 0, ptr %4, align 4
  br label %23

22:                                               ; preds = %20, %14
  store i8 0, ptr @PqCommBusy, align 1
  store i32 -1, ptr %4, align 4
  br label %23

23:                                               ; preds = %22, %21, %10
  %24 = load i32, ptr %4, align 4
  ret i32 %24
}