; Function Attrs: nounwind uwtable
define dso_local range(i32 -1, 1) i32 @pq_putmessage_v2(i8 noundef signext %0, ptr noundef %1, i64 noundef %2) local_unnamed_addr #0 {
  %4 = alloca i8, align 1
  store i8 %0, ptr %4, align 1
  %.b2 = load i1, ptr @PqCommBusy, align 1
  br i1 %.b2, label %10, label %5

5:                                                ; preds = %3
  store i1 true, ptr @PqCommBusy, align 1
  %6 = call fastcc i32 @internal_putbytes(ptr noundef nonnull %4, i64 noundef 1)
  %.not = icmp eq i32 %6, 0
  br i1 %.not, label %7, label %9

7:                                                ; preds = %5
  %8 = call fastcc i32 @internal_putbytes(ptr noundef %1, i64 noundef %2)
  %.not3 = icmp eq i32 %8, 0
  br i1 %.not3, label %.sink.split, label %9

9:                                                ; preds = %7, %5
  br label %.sink.split

.sink.split:                                      ; preds = %7, %9
  %.0.ph = phi i32 [ -1, %9 ], [ 0, %7 ]
  store i1 false, ptr @PqCommBusy, align 1
  br label %10

10:                                               ; preds = %.sink.split, %3
  %.0 = phi i32 [ 0, %3 ], [ %.0.ph, %.sink.split ]
  ret i32 %.0
}